target datalayout = "e-m:e-p270:32:32-p271:32:32-p272:64:64-i64:64-i128:128-f80:128-n8:16:32:64-S128"
target triple = "x86_64-pc-linux-gnu"

%struct.gguf_context = type { i32, %"class.std::vector", %"class.std::vector.17", i64, i64, i64, ptr }
%"class.std::vector" = type { %"struct.std::_Vector_base" }
%"struct.std::_Vector_base" = type { %"struct.std::_Vector_base<gguf_kv, std::allocator<gguf_kv>>::_Vector_impl" }
%"struct.std::_Vector_base<gguf_kv, std::allocator<gguf_kv>>::_Vector_impl" = type { %"struct.std::_Vector_base<gguf_kv, std::allocator<gguf_kv>>::_Vector_impl_data" }
%"struct.std::_Vector_base<gguf_kv, std::allocator<gguf_kv>>::_Vector_impl_data" = type { ptr, ptr, ptr }
%"class.std::vector.17" = type { %"struct.std::_Vector_base.18" }
%"struct.std::_Vector_base.18" = type { %"struct.std::_Vector_base<gguf_tensor_info, std::allocator<gguf_tensor_info>>::_Vector_impl" }
%"struct.std::_Vector_base<gguf_tensor_info, std::allocator<gguf_tensor_info>>::_Vector_impl" = type { %"struct.std::_Vector_base<gguf_tensor_info, std::allocator<gguf_tensor_info>>::_Vector_impl_data" }
%"struct.std::_Vector_base<gguf_tensor_info, std::allocator<gguf_tensor_info>>::_Vector_impl_data" = type { ptr, ptr, ptr }
%"class.std::__cxx11::basic_string" = type { %"struct.std::__cxx11::basic_string<char>::_Alloc_hider", i64, %union.anon }
%"struct.std::__cxx11::basic_string<char>::_Alloc_hider" = type { ptr }
%union.anon = type { i64, [8 x i8] }
%struct.gguf_kv = type { %"class.std::__cxx11::basic_string", i8, i32, %"class.std::vector.27", %"class.std::vector.32" }
%"class.std::vector.27" = type { %"struct.std::_Vector_base.28" }
%"struct.std::_Vector_base.28" = type { %"struct.std::_Vector_base<signed char, std::allocator<signed char>>::_Vector_impl" }
%"struct.std::_Vector_base<signed char, std::allocator<signed char>>::_Vector_impl" = type { %"struct.std::_Vector_base<signed char, std::allocator<signed char>>::_Vector_impl_data" }
%"struct.std::_Vector_base<signed char, std::allocator<signed char>>::_Vector_impl_data" = type { ptr, ptr, ptr }
%"class.std::vector.32" = type { %"struct.std::_Vector_base.33" }
%"struct.std::_Vector_base.33" = type { %"struct.std::_Vector_base<std::__cxx11::basic_string<char>, std::allocator<std::__cxx11::basic_string<char>>>::_Vector_impl" }
%"struct.std::_Vector_base<std::__cxx11::basic_string<char>, std::allocator<std::__cxx11::basic_string<char>>>::_Vector_impl" = type { %"struct.std::_Vector_base<std::__cxx11::basic_string<char>, std::allocator<std::__cxx11::basic_string<char>>>::_Vector_impl_data" }
%"struct.std::_Vector_base<std::__cxx11::basic_string<char>, std::allocator<std::__cxx11::basic_string<char>>>::_Vector_impl_data" = type { ptr, ptr, ptr }

@.str.28 = private unnamed_addr constant [115 x i8] c"generated/home/dtcxzyw/WorkSpace/Projects/compilers/llvm-opt-benchmark/bench/llama.cpp/llama.cpp/ggml/src/gguf.cpp\00", align 1
@.str.29 = private unnamed_addr constant [23 x i8] c"GGML_ASSERT(%s) failed\00", align 1
@.str.53 = private unnamed_addr constant [43 x i8] c"key_id >= 0 && key_id < gguf_get_n_kv(ctx)\00", align 1
@.str.58 = private unnamed_addr constant [30 x i8] c"ctx->kv[key_id].get_ne() == 1\00", align 1
@.str.80 = private unnamed_addr constant [36 x i8] c"type_to_gguf_type<T>::value == type\00", align 1
@.str.82 = private unnamed_addr constant [26 x i8] c"data_string.size() >= i+1\00", align 1

; Function Attrs: mustprogress nounwind uwtable
define available_externally noundef ptr @_ZNKSt7__cxx1112basic_stringIcSt11char_traitsIcESaIcEE7_M_dataEv(ptr noundef nonnull align 8 dereferenceable(32) %0) #3 align 2 {
  %2 = alloca ptr, align 8
  store ptr %0, ptr %2, align 8, !tbaa !116
  %3 = load ptr, ptr %2, align 8
  %4 = getelementptr inbounds nuw %"class.std::__cxx11::basic_string", ptr %3, i32 0, i32 0
  %5 = getelementptr inbounds nuw %"struct.std::__cxx11::basic_string<char>::_Alloc_hider", ptr %4, i32 0, i32 0
  %6 = load ptr, ptr %5, align 8, !tbaa !285
  ret ptr %6
}

; Function Attrs: mustprogress nounwind uwtable
define linkonce_odr noundef nonnull align 8 dereferenceable(32) ptr @_ZNKSt6vectorINSt7__cxx1112basic_stringIcSt11char_traitsIcESaIcEEESaIS5_EEixEm(ptr noundef nonnull align 8 dereferenceable(24) %0, i64 noundef %1) #3 comdat align 2 {
  %3 = alloca ptr, align 8
  %4 = alloca i64, align 8
  store ptr %0, ptr %3, align 8, !tbaa !155
  store i64 %1, ptr %4, align 8, !tbaa !69
  %5 = load ptr, ptr %3, align 8
  %6 = getelementptr inbounds nuw %"struct.std::_Vector_base.33", ptr %5, i32 0, i32 0
  %7 = getelementptr inbounds nuw %"struct.std::_Vector_base<std::__cxx11::basic_string<char>, std::allocator<std::__cxx11::basic_string<char>>>::_Vector_impl_data", ptr %6, i32 0, i32 0
  %8 = load ptr, ptr %7, align 8, !tbaa !157
  %9 = load i64, ptr %4, align 8, !tbaa !69
  %10 = getelementptr inbounds nuw %"class.std::__cxx11::basic_string", ptr %8, i64 %9
  ret ptr %10
}

; Function Attrs: mustprogress nounwind uwtable
define linkonce_odr noundef i64 @_ZNKSt6vectorINSt7__cxx1112basic_stringIcSt11char_traitsIcESaIcEEESaIS5_EE4sizeEv(ptr noundef nonnull align 8 dereferenceable(24) %0) #3 comdat align 2 {
  %2 = alloca ptr, align 8
  store ptr %0, ptr %2, align 8, !tbaa !155
  %3 = load ptr, ptr %2, align 8
  %4 = getelementptr inbounds nuw %"struct.std::_Vector_base.33", ptr %3, i32 0, i32 0
  %5 = getelementptr inbounds nuw %"struct.std::_Vector_base<std::__cxx11::basic_string<char>, std::allocator<std::__cxx11::basic_string<char>>>::_Vector_impl_data", ptr %4, i32 0, i32 1
  %6 = load ptr, ptr %5, align 8, !tbaa !159
  %7 = getelementptr inbounds nuw %"struct.std::_Vector_base.33", ptr %3, i32 0, i32 0
  %8 = getelementptr inbounds nuw %"struct.std::_Vector_base<std::__cxx11::basic_string<char>, std::allocator<std::__cxx11::basic_string<char>>>::_Vector_impl_data", ptr %7, i32 0, i32 0
  %9 = load ptr, ptr %8, align 8, !tbaa !157
  %10 = ptrtoint ptr %6 to i64
  %11 = ptrtoint ptr %9 to i64
  %12 = sub i64 %10, %11
  %13 = sdiv exact i64 %12, 32
  ret i64 %13
}

; Function Attrs: mustprogress nounwind uwtable
define linkonce_odr noundef i64 @_ZNKSt6vectorI7gguf_kvSaIS0_EE4sizeEv(ptr noundef nonnull align 8 dereferenceable(24) %0) #3 comdat align 2 {
  %2 = alloca ptr, align 8
  store ptr %0, ptr %2, align 8, !tbaa !118
  %3 = load ptr, ptr %2, align 8
  %4 = getelementptr inbounds nuw %"struct.std::_Vector_base", ptr %3, i32 0, i32 0
  %5 = getelementptr inbounds nuw %"struct.std::_Vector_base<gguf_kv, std::allocator<gguf_kv>>::_Vector_impl_data", ptr %4, i32 0, i32 1
  %6 = load ptr, ptr %5, align 8, !tbaa !120
  %7 = getelementptr inbounds nuw %"struct.std::_Vector_base", ptr %3, i32 0, i32 0
  %8 = getelementptr inbounds nuw %"struct.std::_Vector_base<gguf_kv, std::allocator<gguf_kv>>::_Vector_impl_data", ptr %7, i32 0, i32 0
  %9 = load ptr, ptr %8, align 8, !tbaa !121
  %10 = ptrtoint ptr %6 to i64
  %11 = ptrtoint ptr %9 to i64
  %12 = sub i64 %10, %11
  %13 = sdiv exact i64 %12, 88
  ret i64 %13
}

; Function Attrs: mustprogress nounwind uwtable
define available_externally noundef ptr @_ZNKSt7__cxx1112basic_stringIcSt11char_traitsIcESaIcEE5c_strEv(ptr noundef nonnull align 8 dereferenceable(32) %0) #3 align 2 {
  %2 = alloca ptr, align 8
  store ptr %0, ptr %2, align 8, !tbaa !116
  %3 = load ptr, ptr %2, align 8
  %4 = call noundef ptr @_ZNKSt7__cxx1112basic_stringIcSt11char_traitsIcESaIcEE7_M_dataEv(ptr noundef nonnull align 8 dereferenceable(32) %3)
  ret ptr %4
}

; Function Attrs: mustprogress uwtable
define linkonce_odr noundef nonnull align 8 dereferenceable(32) ptr @_ZNK7gguf_kv7get_valINSt7__cxx1112basic_stringIcSt11char_traitsIcESaIcEEEEERKT_m(ptr noundef nonnull align 8 dereferenceable(88) %0, i64 noundef %1) #4 comdat align 2 {
  %3 = alloca ptr, align 8
  %4 = alloca i64, align 8
  store ptr %0, ptr %3, align 8, !tbaa !141
  store i64 %1, ptr %4, align 8, !tbaa !69
  %5 = load ptr, ptr %3, align 8
  %6 = getelementptr inbounds nuw %struct.gguf_kv, ptr %5, i32 0, i32 2
  %7 = load i32, ptr %6, align 4, !tbaa !158
  %8 = icmp eq i32 8, %7
  br i1 %8, label %10, label %9

9:                                                ; preds = %2
  call void (ptr, i32, ptr, ...) @ggml_abort(ptr noundef @.str.28, i32 noundef 183, ptr noundef @.str.29, ptr noundef @.str.80) #21
  unreachable

10:                                               ; preds = %2
  %11 = getelementptr inbounds nuw %struct.gguf_kv, ptr %5, i32 0, i32 4
  %12 = call noundef i64 @_ZNKSt6vectorINSt7__cxx1112basic_stringIcSt11char_traitsIcESaIcEEESaIS5_EE4sizeEv(ptr noundef nonnull align 8 dereferenceable(24) %11) #5
  %13 = load i64, ptr %4, align 8, !tbaa !69
  %14 = add i64 %13, 1
  %15 = icmp uge i64 %12, %14
  br i1 %15, label %17, label %16

16:                                               ; preds = %10
  call void (ptr, i32, ptr, ...) @ggml_abort(ptr noundef @.str.28, i32 noundef 185, ptr noundef @.str.29, ptr noundef @.str.82) #21
  unreachable

17:                                               ; preds = %10
  %18 = getelementptr inbounds nuw %struct.gguf_kv, ptr %5, i32 0, i32 4
  %19 = load i64, ptr %4, align 8, !tbaa !69
  %20 = call noundef nonnull align 8 dereferenceable(32) ptr @_ZNKSt6vectorINSt7__cxx1112basic_stringIcSt11char_traitsIcESaIcEEESaIS5_EEixEm(ptr noundef nonnull align 8 dereferenceable(24) %18, i64 noundef %19) #5
  ret ptr %20
}

; Function Attrs: mustprogress nounwind uwtable
define linkonce_odr noundef nonnull align 8 dereferenceable(88) ptr @_ZNKSt6vectorI7gguf_kvSaIS0_EEixEm(ptr noundef nonnull align 8 dereferenceable(24) %0, i64 noundef %1) #3 comdat align 2 {
  %3 = alloca ptr, align 8
  %4 = alloca i64, align 8
  store ptr %0, ptr %3, align 8, !tbaa !118
  store i64 %1, ptr %4, align 8, !tbaa !69
  %5 = load ptr, ptr %3, align 8
  %6 = getelementptr inbounds nuw %"struct.std::_Vector_base", ptr %5, i32 0, i32 0
  %7 = getelementptr inbounds nuw %"struct.std::_Vector_base<gguf_kv, std::allocator<gguf_kv>>::_Vector_impl_data", ptr %6, i32 0, i32 0
  %8 = load ptr, ptr %7, align 8, !tbaa !121
  %9 = load i64, ptr %4, align 8, !tbaa !69
  %10 = getelementptr inbounds nuw %struct.gguf_kv, ptr %8, i64 %9
  ret ptr %10
}

; Function Attrs: mustprogress nounwind uwtable
define i64 @gguf_get_n_kv(ptr noundef %0) #3 {
  %2 = alloca ptr, align 8
  store ptr %0, ptr %2, align 8, !tbaa !41
  %3 = load ptr, ptr %2, align 8, !tbaa !41
  %4 = getelementptr inbounds nuw %struct.gguf_context, ptr %3, i32 0, i32 1
  %5 = call noundef i64 @_ZNKSt6vectorI7gguf_kvSaIS0_EE4sizeEv(ptr noundef nonnull align 8 dereferenceable(24) %4) #5
  ret i64 %5
}

; Function Attrs: mustprogress uwtable
define ptr @gguf_get_val_str(ptr noundef %0, i64 noundef %1) #4 {
  %3 = alloca ptr, align 8
  %4 = alloca i64, align 8
  store ptr %0, ptr %3, align 8, !tbaa !41
  store i64 %1, ptr %4, align 8, !tbaa !69
  %5 = load i64, ptr %4, align 8, !tbaa !69
  %6 = icmp sge i64 %5, 0
  br i1 %6, label %7, label %12

7:                                                ; preds = %2
  %8 = load i64, ptr %4, align 8, !tbaa !69
  %9 = load ptr, ptr %3, align 8, !tbaa !41
  %10 = call i64 @gguf_get_n_kv(ptr noundef %9)
  %11 = icmp slt i64 %8, %10
  br i1 %11, label %13, label %12

12:                                               ; preds = %7, %2
  call void (ptr, i32, ptr, ...) @ggml_abort(ptr noundef @.str.28, i32 noundef 869, ptr noundef @.str.29, ptr noundef @.str.53) #21
  unreachable

13:                                               ; preds = %7
  %14 = load ptr, ptr %3, align 8, !tbaa !41
  %15 = getelementptr inbounds nuw %struct.gguf_context, ptr %14, i32 0, i32 1
  %16 = load i64, ptr %4, align 8, !tbaa !69
  %17 = call noundef nonnull align 8 dereferenceable(88) ptr @_ZNKSt6vectorI7gguf_kvSaIS0_EEixEm(ptr noundef nonnull align 8 dereferenceable(24) %15, i64 noundef %16) #5
  %18 = call noundef i64 @_ZNK7gguf_kv6get_neEv(ptr noundef nonnull align 8 dereferenceable(88) %17)
  %19 = icmp eq i64 %18, 1
  br i1 %19, label %21, label %20

20:                                               ; preds = %13
  call void (ptr, i32, ptr, ...) @ggml_abort(ptr noundef @.str.28, i32 noundef 870, ptr noundef @.str.29, ptr noundef @.str.58) #21
  unreachable

21:                                               ; preds = %13
  %22 = load ptr, ptr %3, align 8, !tbaa !41
  %23 = getelementptr inbounds nuw %struct.gguf_context, ptr %22, i32 0, i32 1
  %24 = load i64, ptr %4, align 8, !tbaa !69
  %25 = call noundef nonnull align 8 dereferenceable(88) ptr @_ZNKSt6vectorI7gguf_kvSaIS0_EEixEm(ptr noundef nonnull align 8 dereferenceable(24) %23, i64 noundef %24) #5
  %26 = call noundef nonnull align 8 dereferenceable(32) ptr @_ZNK7gguf_kv7get_valINSt7__cxx1112basic_stringIcSt11char_traitsIcESaIcEEEEERKT_m(ptr noundef nonnull align 8 dereferenceable(88) %25, i64 noundef 0)
  %27 = call noundef ptr @_ZNKSt7__cxx1112basic_stringIcSt11char_traitsIcESaIcEE5c_strEv(ptr noundef nonnull align 8 dereferenceable(32) %26) #5
  ret ptr %27
}